target datalayout = "e-m:e-p270:32:32-p271:32:32-p272:64:64-i64:64-i128:128-f80:128-n8:16:32:64-S128"
target triple = "x86_64-pc-linux-gnu"

%struct.Node = type { i32 }

; Function Attrs: nounwind uwtable
define internal zeroext i1 @ValidJsonBehaviorDefaultExpr(ptr noundef %0, ptr noundef %1) #0 {
  %3 = alloca i1, align 1
  %4 = alloca ptr, align 8
  %5 = alloca ptr, align 8
  store ptr %0, ptr %4, align 8
  store ptr %1, ptr %5, align 8
  %6 = load ptr, ptr %4, align 8
  %7 = icmp eq ptr %6, null
  br i1 %7, label %8, label %9

8:                                                ; preds = %2
  store i1 false, ptr %3, align 1
  br label %20

9:                                                ; preds = %2
  %10 = load ptr, ptr %4, align 8
  %11 = getelementptr inbounds nuw %struct.Node, ptr %10, i32 0, i32 0
  %12 = load i32, ptr %11, align 4
  switch i32 %12, label %18 [
    i32 7, label %13
    i32 15, label %13
    i32 17, label %13
    i32 28, label %14
    i32 55, label %14
    i32 29, label %14
    i32 30, label %14
    i32 27, label %14
    i32 31, label %14
  ]

13:                                               ; preds = %9, %9, %9
  store i1 true, ptr %3, align 1
  br label %20

14:                                               ; preds = %9, %9, %9, %9, %9, %9
  %15 = load ptr, ptr %4, align 8
  %16 = load ptr, ptr %5, align 8
  %17 = call zeroext i1 @expression_tree_walker_impl(ptr noundef %15, ptr noundef @ValidJsonBehaviorDefaultExpr, ptr noundef %16)
  store i1 %17, ptr %3, align 1
  br label %20

18:                                               ; preds = %9
  br label %19

19:                                               ; preds = %18
  store i1 false, ptr %3, align 1
  br label %20

20:                                               ; preds = %19, %14, %13, %8
  %21 = load i1, ptr %3, align 1
  ret i1 %21
}