; Function Attrs: nounwind uwtable
define internal zeroext i1 @ValidJsonBehaviorDefaultExpr(ptr noundef %0, ptr noundef %1) #0 {
  %3 = icmp eq ptr %0, null
  br i1 %3, label %9, label %4

4:                                                ; preds = %2
  %5 = load i32, ptr %0, align 4
  switch i32 %5, label %8 [
    i32 7, label %9
    i32 15, label %9
    i32 17, label %9
    i32 28, label %6
    i32 55, label %6
    i32 29, label %6
    i32 30, label %6
    i32 27, label %6
    i32 31, label %6
  ]

6:                                                ; preds = %4, %4, %4, %4, %4, %4
  %7 = tail call zeroext i1 @expression_tree_walker_impl(ptr noundef nonnull %0, ptr noundef nonnull @ValidJsonBehaviorDefaultExpr, ptr noundef %1) #9
  br label %9

8:                                                ; preds = %4
  br label %9

9:                                                ; preds = %4, %4, %4, %2, %8, %6
  %.0 = phi i1 [ false, %8 ], [ %7, %6 ], [ false, %2 ], [ true, %4 ], [ true, %4 ], [ true, %4 ]
  ret i1 %.0
}